target datalayout = "e-m:e-p270:32:32-p271:32:32-p272:64:64-i64:64-i128:128-f80:128-n8:16:32:64-S128"
target triple = "x86_64-pc-linux-gnu"

%struct.ident_t = type { i32, i32, i32, i32, ptr }

@1 = private unnamed_addr constant %struct.ident_t { i32 0, i32 514, i32 0, i32 22, ptr @0 }, align 8

; Function Attrs: norecurse nounwind uwtable
define internal void @_ZN5faiss16fvec_norms_L2sqrEPfPKfmm.omp_outlined(ptr noalias noundef %0, ptr noalias noundef %1, ptr noundef nonnull align 8 dereferenceable(8) %2, ptr noundef nonnull align 8 dereferenceable(8) %3, ptr noundef nonnull align 8 dereferenceable(8) %4, ptr noundef nonnull align 8 dereferenceable(8) %5) #1 personality ptr @__gxx_personality_v0 {
  %7 = alloca ptr, align 8
  %8 = alloca ptr, align 8
  %9 = alloca ptr, align 8
  %10 = alloca ptr, align 8
  %11 = alloca ptr, align 8
  %12 = alloca ptr, align 8
  %13 = alloca i64, align 8
  %14 = alloca i64, align 8
  %15 = alloca i64, align 8
  %16 = alloca i64, align 8
  %17 = alloca i64, align 8
  %18 = alloca i64, align 8
  %19 = alloca i64, align 8
  %20 = alloca i32, align 4
  %21 = alloca i64, align 8
  store ptr %0, ptr %7, align 8
  store ptr %1, ptr %8, align 8
  store ptr %2, ptr %9, align 8
  store ptr %3, ptr %10, align 8
  store ptr %4, ptr %11, align 8
  store ptr %5, ptr %12, align 8
  %22 = load ptr, ptr %9, align 8
  %23 = load ptr, ptr %10, align 8
  %24 = load ptr, ptr %11, align 8
  %25 = load ptr, ptr %12, align 8
  %26 = load i64, ptr %22, align 8
  store i64 %26, ptr %14, align 8
  %27 = load i64, ptr %14, align 8
  %28 = sub i64 %27, 0
  %29 = udiv i64 %28, 1
  %30 = sub i64 %29, 1
  store i64 %30, ptr %15, align 8
  store i64 0, ptr %16, align 8
  %31 = load i64, ptr %14, align 8
  %32 = icmp ult i64 0, %31
  br i1 %32, label %33, label %75

33:                                               ; preds = %6
  store i64 0, ptr %17, align 8
  %34 = load i64, ptr %15, align 8
  store i64 %34, ptr %18, align 8
  store i64 1, ptr %19, align 8
  store i32 0, ptr %20, align 4
  %35 = load ptr, ptr %7, align 8
  %36 = load i32, ptr %35, align 4
  call void @__kmpc_for_static_init_8u(ptr @1, i32 %36, i32 34, ptr %20, ptr %17, ptr %18, ptr %19, i64 1, i64 1)
  %37 = load i64, ptr %18, align 8
  %38 = load i64, ptr %15, align 8
  %39 = icmp ugt i64 %37, %38
  br i1 %39, label %40, label %42

40:                                               ; preds = %33
  %41 = load i64, ptr %15, align 8
  br label %44

42:                                               ; preds = %33
  %43 = load i64, ptr %18, align 8
  br label %44

44:                                               ; preds = %42, %40
  %45 = phi i64 [ %41, %40 ], [ %43, %42 ]
  store i64 %45, ptr %18, align 8
  %46 = load i64, ptr %17, align 8
  store i64 %46, ptr %13, align 8
  br label %47

47:                                               ; preds = %68, %44
  %48 = load i64, ptr %13, align 8
  %49 = load i64, ptr %18, align 8
  %50 = add i64 %49, 1
  %51 = icmp ult i64 %48, %50
  br i1 %51, label %52, label %71

52:                                               ; preds = %47
  %53 = load i64, ptr %13, align 8
  %54 = mul i64 %53, 1
  %55 = add i64 0, %54
  store i64 %55, ptr %21, align 8
  %56 = load ptr, ptr %24, align 8
  %57 = load i64, ptr %21, align 8
  %58 = load i64, ptr %25, align 8
  %59 = mul i64 %57, %58
  %60 = getelementptr inbounds float, ptr %56, i64 %59
  %61 = load i64, ptr %25, align 8
  %62 = invoke noundef float @_ZN5faiss15fvec_norm_L2sqrEPKfm(ptr noundef %60, i64 noundef %61)
          to label %63 unwind label %76

63:                                               ; preds = %52
  %64 = load ptr, ptr %23, align 8
  %65 = load i64, ptr %21, align 8
  %66 = getelementptr inbounds float, ptr %64, i64 %65
  store float %62, ptr %66, align 4
  br label %67

67:                                               ; preds = %63
  br label %68

68:                                               ; preds = %67
  %69 = load i64, ptr %13, align 8
  %70 = add i64 %69, 1
  store i64 %70, ptr %13, align 8
  br label %47

71:                                               ; preds = %47
  br label %72

72:                                               ; preds = %71
  %73 = load ptr, ptr %7, align 8
  %74 = load i32, ptr %73, align 4
  call void @__kmpc_for_static_fini(ptr @1, i32 %74)
  br label %75

75:                                               ; preds = %72, %6
  ret void

76:                                               ; preds = %52
  %77 = landingpad { ptr, i32 }
          catch ptr null
  %78 = extractvalue { ptr, i32 } %77, 0
  call void @__clang_call_terminate(ptr %78) #17
  unreachable
}