; Function Attrs: norecurse nounwind uwtable
define internal void @_ZN5faiss16fvec_norms_L2sqrEPfPKfmm.omp_outlined(ptr noalias nocapture noundef readonly %0, ptr noalias nocapture readnone %1, ptr nocapture noundef nonnull readonly align 8 dereferenceable(8) %2, ptr nocapture noundef nonnull readonly align 8 dereferenceable(8) %3, ptr nocapture noundef nonnull readonly align 8 dereferenceable(8) %4, ptr nocapture noundef nonnull readonly align 8 dereferenceable(8) %5) #1 personality ptr @__gxx_personality_v0 {
  %7 = alloca i64, align 8
  %8 = alloca i64, align 8
  %9 = alloca i64, align 8
  %10 = alloca i32, align 4
  %11 = load i64, ptr %2, align 8
  %.not = icmp eq i64 %11, 0
  br i1 %.not, label %30, label %12

12:                                               ; preds = %6
  %13 = add i64 %11, -1
  store i64 0, ptr %7, align 8
  store i64 %13, ptr %8, align 8
  store i64 1, ptr %9, align 8
  store i32 0, ptr %10, align 4
  %14 = load i32, ptr %0, align 4
  call void @__kmpc_for_static_init_8u(ptr nonnull @1, i32 %14, i32 34, ptr nonnull %10, ptr nonnull %7, ptr nonnull %8, ptr nonnull %9, i64 1, i64 1)
  %15 = load i64, ptr %8, align 8
  %16 = call i64 @llvm.umin.i64(i64 %15, i64 %13)
  store i64 %16, ptr %8, align 8
  %17 = load i64, ptr %7, align 8
  %.not16 = icmp ugt i64 %17, %16
  br i1 %.not16, label %._crit_edge, label %.lr.ph

.lr.ph:                                           ; preds = %12, %23
  %.015 = phi i64 [ %26, %23 ], [ %17, %12 ]
  %18 = load ptr, ptr %4, align 8
  %19 = load i64, ptr %5, align 8
  %20 = mul i64 %19, %.015
  %21 = getelementptr inbounds float, ptr %18, i64 %20
  %22 = invoke noundef float @_ZN5faiss15fvec_norm_L2sqrEPKfm(ptr noundef %21, i64 noundef %19)
          to label %23 unwind label %31

23:                                               ; preds = %.lr.ph
  %24 = load ptr, ptr %3, align 8
  %25 = getelementptr inbounds float, ptr %24, i64 %.015
  store float %22, ptr %25, align 4
  %26 = add nuw i64 %.015, 1
  %27 = load i64, ptr %8, align 8
  %28 = add i64 %27, 1
  %29 = icmp ult i64 %26, %28
  br i1 %29, label %.lr.ph, label %._crit_edge

._crit_edge:                                      ; preds = %23, %12
  call void @__kmpc_for_static_fini(ptr nonnull @1, i32 %14)
  br label %30

30:                                               ; preds = %._crit_edge, %6
  ret void

31:                                               ; preds = %.lr.ph
  %32 = landingpad { ptr, i32 }
          catch ptr null
  %33 = extractvalue { ptr, i32 } %32, 0
  call void @__clang_call_terminate(ptr %33) #22
  unreachable
}